ARM GAS  C:\Users\hresk\AppData\Local\Temp\ccQb0PU9.s 			page 1


   1              		.syntax unified
   2              		.cpu cortex-m3
   3              		.fpu softvfp
   4              		.eabi_attribute 20, 1
   5              		.eabi_attribute 21, 1
   6              		.eabi_attribute 23, 3
   7              		.eabi_attribute 24, 1
   8              		.eabi_attribute 25, 1
   9              		.eabi_attribute 26, 1
  10              		.eabi_attribute 30, 1
  11              		.eabi_attribute 34, 1
  12              		.eabi_attribute 18, 4
  13              		.thumb
  14              		.syntax unified
  15              		.file	"main.c"
  16              		.text
  17              	.Ltext0:
  18              		.cfi_sections	.debug_frame
  19              		.global	__aeabi_ui2f
  20              		.global	__aeabi_i2f
  21              		.global	__aeabi_fadd
  22              		.section	.text.fetchData,"ax",%progbits
  23              		.align	2
  24              		.global	fetchData
  25              		.thumb
  26              		.thumb_func
  27              		.type	fetchData, %function
  28              	fetchData:
  29              	.LFB65:
  30              		.file 1 "main.c"
   1:main.c        **** /* ========================================
   2:main.c        ****  *
   3:main.c        ****  * Copyright YOUR COMPANY, THE YEAR
   4:main.c        ****  * All Rights Reserved
   5:main.c        ****  * UNPUBLISHED, LICENSED SOFTWARE.
   6:main.c        ****  *
   7:main.c        ****  * CONFIDENTIAL AND PROPRIETARY INFORMATION
   8:main.c        ****  * WHICH IS THE PROPERTY OF your company.
   9:main.c        ****  *
  10:main.c        ****  * ========================================
  11:main.c        **** */
  12:main.c        **** #include "project.h"
  13:main.c        **** #include <stdio.h>
  14:main.c        **** 
  15:main.c        **** float fetchData(uint8_t adress);
  16:main.c        **** 
  17:main.c        **** int main(void)
  18:main.c        **** {
  19:main.c        ****     CyGlobalIntEnable; // Enable global interrupts.
  20:main.c        ****     
  21:main.c        **** 	
  22:main.c        **** 	I2C_LM75_Start(); // Klargøre I2C 
  23:main.c        **** 	// Fra datablad: 
  24:main.c        **** 	// You must set up the I2C Slave buffers before this function call to avoid reading or writing par
  25:main.c        **** 	
  26:main.c        **** 	UART_TERMINAL_Start(); // Klargøre UART
  27:main.c        **** 	
ARM GAS  C:\Users\hresk\AppData\Local\Temp\ccQb0PU9.s 			page 2


  28:main.c        **** 	float temp = 0; // Variable til opbevaring af beregnet temperatur data
  29:main.c        **** 	
  30:main.c        **** 	
  31:main.c        **** 	char buffer[256]; // Chart array til udskrivning af temperatur data
  32:main.c        **** 	uint8_t status = 0; // Til tjek om I2C er klar
  33:main.c        **** 	
  34:main.c        **** 
  35:main.c        **** 	/*
  36:main.c        **** 	Adresse opsætning: 
  37:main.c        **** 	Adressens første fire bit er faste
  38:main.c        **** 	De sidste fire bit er hhv. 3 bit indstillet på LM75 kredsløb og et bit som fortæller om du skri
  39:main.c        **** 	1001xxxy
  40:main.c        **** 	x = valgt via den røde kasse på LM75
  41:main.c        **** 	y = 1 for læs || 0 for skriv
  42:main.c        **** 	y sættes i funktionskald.
  43:main.c        **** 	Eksempel: I2C_LM75_MasterSendStart(0x48, 1) 
  44:main.c        **** 	*/
  45:main.c        **** 	
  46:main.c        **** 	uint8_t slaveAddr1 = 0x48; // 1 == on; 2 == on; 3 == 0n -> 0b01001000 
  47:main.c        **** 	//uint8_t slaveAddr2 = 0x4F; // 1 == off; 2 == off; 3 == 0ff -> 0b01001111
  48:main.c        **** 
  49:main.c        **** 	
  50:main.c        ****     for(;;)
  51:main.c        ****     {
  52:main.c        **** 		// Hent temperatur data fra parameter adresse
  53:main.c        **** 		temp = fetchData(slaveAddr1);
  54:main.c        **** 		
  55:main.c        **** 		uint8_t whole = (uint8_t)temp;
  56:main.c        **** 		
  57:main.c        **** 		float decimal = temp - whole;
  58:main.c        **** 		
  59:main.c        **** 		whole = whole << 1;
  60:main.c        **** 		if (decimal)
  61:main.c        **** 			whole++;
  62:main.c        **** 		
  63:main.c        **** 		
  64:main.c        **** 		//snprintf(buffer, sizeof(buffer), "%.1f\r\n", whole);
  65:main.c        **** 		//UART_TERMINAL_PutString((char)whole);
  66:main.c        **** 		//UART_TERMINAL_PutChar(whole);
  67:main.c        **** 		UART_TERMINAL_WriteTxData(whole);
  68:main.c        **** 		
  69:main.c        **** 		CyDelay(2000);
  70:main.c        **** 		/*
  71:main.c        **** 		// Klargøre buffer til udskrive med adresse på I2C enhed og float temperatur
  72:main.c        **** 		snprintf(buffer, sizeof(buffer), "Enhed med adresse %u har temperatur: %.1f \r\n", slaveAddr1, de
  73:main.c        **** 		UART_TERMINAL_PutString(buffer); 
  74:main.c        **** 
  75:main.c        **** 		// Hent temperatur data fra parameter adresse
  76:main.c        **** 		dec = fetchData(slaveAddr2);
  77:main.c        **** 		// Klargøre buffer til udskrive med adresse på I2C enhed og temperatur float
  78:main.c        **** 		snprintf(buffer, sizeof(buffer), "Enhed med adresse %u har temperatur: %.1f \r\n", slaveAddr2, de
  79:main.c        **** 		UART_TERMINAL_PutString(buffer);
  80:main.c        **** 		
  81:main.c        **** 		UART_TERMINAL_PutString("\r\n");
  82:main.c        **** 		*/
  83:main.c        **** 		// Forsinkelse mellem data hentning og udskrift
  84:main.c        **** 		CyDelay(2000);
ARM GAS  C:\Users\hresk\AppData\Local\Temp\ccQb0PU9.s 			page 3


  85:main.c        ****     }
  86:main.c        **** }
  87:main.c        **** 
  88:main.c        **** // Henter temperatur data fra LM75, omregner anden komplement til float værdi og behandler data og
  89:main.c        **** float fetchData(uint8_t adress)
  90:main.c        **** {
  31              		.loc 1 90 0
  32              		.cfi_startproc
  33              		@ args = 0, pretend = 0, frame = 0
  34              		@ frame_needed = 0, uses_anonymous_args = 0
  35              	.LVL0:
  36 0000 38B5     		push	{r3, r4, r5, lr}
  37              		.cfi_def_cfa_offset 16
  38              		.cfi_offset 3, -16
  39              		.cfi_offset 4, -12
  40              		.cfi_offset 5, -8
  41              		.cfi_offset 14, -4
  42              	.LVL1:
  91:main.c        **** 	uint8_t recievedValue1 = 0;
  92:main.c        **** 	uint8_t recievedValue2 = 0;
  93:main.c        **** 	// starter dataoverførsel og sikre at der ikke er fejl 
  94:main.c        **** 	uint8_t status = I2C_LM75_MasterSendStart(adress, 1);
  43              		.loc 1 94 0
  44 0002 0121     		movs	r1, #1
  45 0004 FFF7FEFF 		bl	I2C_LM75_MasterSendStart
  46              	.LVL2:
  95:main.c        **** 	if (I2C_LM75_MSTR_NO_ERROR == status)
  47              		.loc 1 95 0
  48 0008 D0B9     		cbnz	r0, .L2
  49              	.LBB2:
  96:main.c        **** 		{
  97:main.c        **** 			// Første modtagede byte gemmes i recievedValue1 og anden i recievedValue2
  98:main.c        **** 			// Rå data
  99:main.c        **** 		    recievedValue1 = I2C_LM75_MasterReadByte(I2C_LM75_ACK_DATA); // Indeholder temperatur heltals
  50              		.loc 1 99 0
  51 000a 0120     		movs	r0, #1
  52              	.LVL3:
  53 000c FFF7FEFF 		bl	I2C_LM75_MasterReadByte
  54              	.LVL4:
  55 0010 0446     		mov	r4, r0
  56              	.LVL5:
 100:main.c        **** 			recievedValue2 = I2C_LM75_MasterReadByte(I2C_LM75_NAK_DATA); // Indeholder temperatur komma
  57              		.loc 1 100 0
  58 0012 0020     		movs	r0, #0
  59 0014 FFF7FEFF 		bl	I2C_LM75_MasterReadByte
  60              	.LVL6:
  61 0018 0546     		mov	r5, r0
  62              	.LVL7:
 101:main.c        **** 			I2C_LM75_MasterSendStop(); // Dataoverførsel slut
  63              		.loc 1 101 0
  64 001a FFF7FEFF 		bl	I2C_LM75_MasterSendStop
  65              	.LVL8:
 102:main.c        **** 			
 103:main.c        **** 			// Vi indsætter vores først modtagede byte i dec variablen
 104:main.c        **** 			float dec = recievedValue1; // Til behandling af data
  66              		.loc 1 104 0
  67 001e 2046     		mov	r0, r4
ARM GAS  C:\Users\hresk\AppData\Local\Temp\ccQb0PU9.s 			page 4


  68 0020 FFF7FEFF 		bl	__aeabi_ui2f
  69              	.LVL9:
 105:main.c        **** 			
 106:main.c        **** 			// Vi undersøger om recievedValue1 (som er to's komplements binær) er et negativt tal
 107:main.c        **** 			if (recievedValue1 >> 7)  
  70              		.loc 1 107 0
  71 0024 14F0800F 		tst	r4, #128
  72 0028 02D0     		beq	.L3
 108:main.c        **** 			{
 109:main.c        **** 				// recievedValue1 omregnes fra to-komplement til decimal og gemmes i variablen dec
 110:main.c        **** 			    dec = (~recievedValue1+1); // omregn 2-komp -> decimal
  73              		.loc 1 110 0
  74 002a 6042     		negs	r0, r4
  75              	.LVL10:
  76 002c FFF7FEFF 		bl	__aeabi_i2f
  77              	.LVL11:
  78              	.L3:
 111:main.c        **** 				
 112:main.c        **** 			}
 113:main.c        **** 			
 114:main.c        **** 			// Herunder One-line databeregning - Potentilt mere effektiv (dekompiler for at teste effektivit
 115:main.c        **** 			//float combinedValue = ((((~recievedValue1+1) << 8) + (recievedValue2)) >> 7)/2; 
 116:main.c        **** 			
 117:main.c        **** 			// vi er intresseret i om MSB i recievedValue2 er forskellig fra 0
 118:main.c        **** 			if ((recievedValue2>>7) != 0) 
  79              		.loc 1 118 0
  80 0030 15F0800F 		tst	r5, #128
  81 0034 07D0     		beq	.L4
 119:main.c        **** 			{
 120:main.c        **** 			    // Hvis MSB i recievedValue2 byte er forskellig fra 0 tilføjes en halv grad til float varia
 121:main.c        **** 				dec += 0.5;
  82              		.loc 1 121 0
  83 0036 4FF07C51 		mov	r1, #1056964608
  84 003a FFF7FEFF 		bl	__aeabi_fadd
  85              	.LVL12:
  86 003e 38BD     		pop	{r3, r4, r5, pc}
  87              	.LVL13:
  88              	.L2:
  89              	.LBE2:
 122:main.c        **** 			}
 123:main.c        **** 			//  Data beregning slut
 124:main.c        **** 			return dec;
 125:main.c        **** 			
 126:main.c        **** 		}
 127:main.c        **** 		else
 128:main.c        **** 		{
 129:main.c        **** 			I2C_LM75_MasterSendStop();
  90              		.loc 1 129 0
  91 0040 FFF7FEFF 		bl	I2C_LM75_MasterSendStop
  92              	.LVL14:
 130:main.c        **** 			return 0;
  93              		.loc 1 130 0
  94 0044 0020     		movs	r0, #0
  95              	.LVL15:
  96              	.L4:
 131:main.c        **** 		}
 132:main.c        **** }
ARM GAS  C:\Users\hresk\AppData\Local\Temp\ccQb0PU9.s 			page 5


  97              		.loc 1 132 0
  98 0046 38BD     		pop	{r3, r4, r5, pc}
  99              		.cfi_endproc
 100              	.LFE65:
 101              		.size	fetchData, .-fetchData
 102              		.global	__aeabi_f2uiz
 103              		.global	__aeabi_fsub
 104              		.global	__aeabi_fcmpeq
 105              		.section	.text.main,"ax",%progbits
 106              		.align	2
 107              		.global	main
 108              		.thumb
 109              		.thumb_func
 110              		.type	main, %function
 111              	main:
 112              	.LFB64:
  18:main.c        ****     CyGlobalIntEnable; // Enable global interrupts.
 113              		.loc 1 18 0
 114              		.cfi_startproc
 115              		@ args = 0, pretend = 0, frame = 0
 116              		@ frame_needed = 0, uses_anonymous_args = 0
 117 0000 38B5     		push	{r3, r4, r5, lr}
 118              		.cfi_def_cfa_offset 16
 119              		.cfi_offset 3, -16
 120              		.cfi_offset 4, -12
 121              		.cfi_offset 5, -8
 122              		.cfi_offset 14, -4
  19:main.c        ****     
 123              		.loc 1 19 0
 124              		.syntax unified
 125              	@ 19 "main.c" 1
 126 0002 62B6     		CPSIE   i
 127              	@ 0 "" 2
  22:main.c        **** 	// Fra datablad: 
 128              		.loc 1 22 0
 129              		.thumb
 130              		.syntax unified
 131 0004 FFF7FEFF 		bl	I2C_LM75_Start
 132              	.LVL16:
  26:main.c        **** 	
 133              		.loc 1 26 0
 134 0008 FFF7FEFF 		bl	UART_TERMINAL_Start
 135              	.LVL17:
 136              	.L10:
 137              	.LBB3:
  53:main.c        **** 		
 138              		.loc 1 53 0
 139 000c 4820     		movs	r0, #72
 140 000e FFF7FEFF 		bl	fetchData
 141              	.LVL18:
 142 0012 0546     		mov	r5, r0
 143              	.LVL19:
  55:main.c        **** 		
 144              		.loc 1 55 0
 145 0014 FFF7FEFF 		bl	__aeabi_f2uiz
 146              	.LVL20:
 147 0018 C4B2     		uxtb	r4, r0
ARM GAS  C:\Users\hresk\AppData\Local\Temp\ccQb0PU9.s 			page 6


 148              	.LVL21:
  57:main.c        **** 		
 149              		.loc 1 57 0
 150 001a 2046     		mov	r0, r4
 151 001c FFF7FEFF 		bl	__aeabi_i2f
 152              	.LVL22:
 153 0020 0146     		mov	r1, r0
 154 0022 2846     		mov	r0, r5
 155 0024 FFF7FEFF 		bl	__aeabi_fsub
 156              	.LVL23:
  59:main.c        **** 		if (decimal)
 157              		.loc 1 59 0
 158 0028 6400     		lsls	r4, r4, #1
 159              	.LVL24:
 160 002a E4B2     		uxtb	r4, r4
 161              	.LVL25:
  60:main.c        **** 			whole++;
 162              		.loc 1 60 0
 163 002c 0021     		movs	r1, #0
 164 002e FFF7FEFF 		bl	__aeabi_fcmpeq
 165              	.LVL26:
 166 0032 08B9     		cbnz	r0, .L8
  61:main.c        **** 		
 167              		.loc 1 61 0
 168 0034 0134     		adds	r4, r4, #1
 169              	.LVL27:
 170 0036 E4B2     		uxtb	r4, r4
 171              	.LVL28:
 172              	.L8:
  67:main.c        **** 		
 173              		.loc 1 67 0
 174 0038 2046     		mov	r0, r4
 175 003a FFF7FEFF 		bl	UART_TERMINAL_WriteTxData
 176              	.LVL29:
  69:main.c        **** 		/*
 177              		.loc 1 69 0
 178 003e 4FF4FA60 		mov	r0, #2000
 179 0042 FFF7FEFF 		bl	CyDelay
 180              	.LVL30:
  84:main.c        ****     }
 181              		.loc 1 84 0
 182 0046 4FF4FA60 		mov	r0, #2000
 183 004a FFF7FEFF 		bl	CyDelay
 184              	.LVL31:
 185              	.LBE3:
  85:main.c        **** }
 186              		.loc 1 85 0
 187 004e DDE7     		b	.L10
 188              		.cfi_endproc
 189              	.LFE64:
 190              		.size	main, .-main
 191              		.text
 192              	.Letext0:
 193              		.file 2 "c:\\program files (x86)\\cypress\\psoc creator\\4.4\\psoc creator\\import\\gnu\\arm\\5.4.
 194              		.file 3 "c:\\program files (x86)\\cypress\\psoc creator\\4.4\\psoc creator\\import\\gnu\\arm\\5.4.
 195              		.file 4 "Generated_Source\\PSoC5/I2C_LM75.h"
 196              		.file 5 "Generated_Source\\PSoC5/UART_TERMINAL.h"
ARM GAS  C:\Users\hresk\AppData\Local\Temp\ccQb0PU9.s 			page 7


 197              		.file 6 "Generated_Source\\PSoC5/CyLib.h"
 198              		.file 7 "Generated_Source\\PSoC5/core_cm3.h"